
Discarded input sections

 .group         0x0000000000000000        0xc obj/main.o
 .group         0x0000000000000000        0xc obj/main.o
 .group         0x0000000000000000        0xc obj/main.o
 .group         0x0000000000000000        0xc obj/main.o
 .group         0x0000000000000000        0xc obj/main.o
 .group         0x0000000000000000        0xc obj/main.o
 .group         0x0000000000000000        0xc obj/main.o
 .group         0x0000000000000000        0xc obj/main.o
 .group         0x0000000000000000        0xc obj/main.o
 .group         0x0000000000000000        0xc obj/main.o
 .group         0x0000000000000000        0xc obj/main.o
 .group         0x0000000000000000        0xc obj/main.o
 .group         0x0000000000000000        0xc obj/main.o
 .text          0x0000000000000000        0x0 obj/main.o
 .data          0x0000000000000000        0x0 obj/main.o
 .bss           0x0000000000000000        0x0 obj/main.o
 .group         0x0000000000000000        0xc obj/leds.o
 .group         0x0000000000000000        0xc obj/leds.o
 .group         0x0000000000000000        0xc obj/leds.o
 .group         0x0000000000000000        0xc obj/leds.o
 .group         0x0000000000000000        0xc obj/leds.o
 .group         0x0000000000000000        0xc obj/leds.o
 .group         0x0000000000000000        0xc obj/leds.o
 .group         0x0000000000000000        0xc obj/leds.o
 .group         0x0000000000000000        0xc obj/leds.o
 .group         0x0000000000000000        0xc obj/leds.o
 .group         0x0000000000000000        0xc obj/leds.o
 .group         0x0000000000000000        0xc obj/leds.o
 .group         0x0000000000000000        0xc obj/leds.o
 .text          0x0000000000000000        0x0 obj/leds.o
 .data          0x0000000000000000        0x0 obj/leds.o
 .bss           0x0000000000000000        0x0 obj/leds.o
 .text.ligth_down_leds
                0x0000000000000000       0x54 obj/leds.o
 .debug_macro   0x0000000000000000      0xa54 obj/leds.o
 .debug_macro   0x0000000000000000       0x28 obj/leds.o
 .debug_macro   0x0000000000000000       0x3b obj/leds.o
 .debug_macro   0x0000000000000000       0x22 obj/leds.o
 .debug_macro   0x0000000000000000       0x8e obj/leds.o
 .debug_macro   0x0000000000000000       0x51 obj/leds.o
 .debug_macro   0x0000000000000000       0xef obj/leds.o
 .debug_macro   0x0000000000000000       0x6a obj/leds.o
 .debug_macro   0x0000000000000000      0x1df obj/leds.o
 .debug_macro   0x0000000000000000       0x2d obj/leds.o
 .debug_macro   0x0000000000000000       0x26 obj/leds.o
 .debug_macro   0x0000000000000000      0xd39 obj/leds.o
 .debug_macro   0x0000000000000000    0x12a33 obj/leds.o
 .group         0x0000000000000000        0xc obj/system_stm32f3xx.o
 .group         0x0000000000000000        0xc obj/system_stm32f3xx.o
 .group         0x0000000000000000        0xc obj/system_stm32f3xx.o
 .group         0x0000000000000000        0xc obj/system_stm32f3xx.o
 .group         0x0000000000000000        0xc obj/system_stm32f3xx.o
 .group         0x0000000000000000        0xc obj/system_stm32f3xx.o
 .group         0x0000000000000000        0xc obj/system_stm32f3xx.o
 .group         0x0000000000000000        0xc obj/system_stm32f3xx.o
 .group         0x0000000000000000        0xc obj/system_stm32f3xx.o
 .group         0x0000000000000000        0xc obj/system_stm32f3xx.o
 .group         0x0000000000000000        0xc obj/system_stm32f3xx.o
 .group         0x0000000000000000        0xc obj/system_stm32f3xx.o
 .group         0x0000000000000000        0xc obj/system_stm32f3xx.o
 .group         0x0000000000000000        0xc obj/system_stm32f3xx.o
 .group         0x0000000000000000        0xc obj/system_stm32f3xx.o
 .text          0x0000000000000000        0x0 obj/system_stm32f3xx.o
 .data          0x0000000000000000        0x0 obj/system_stm32f3xx.o
 .bss           0x0000000000000000        0x0 obj/system_stm32f3xx.o
 .data.SystemCoreClock
                0x0000000000000000        0x4 obj/system_stm32f3xx.o
 .rodata.AHBPrescTable
                0x0000000000000000       0x10 obj/system_stm32f3xx.o
 .rodata.APBPrescTable
                0x0000000000000000        0x8 obj/system_stm32f3xx.o
 .text.SystemCoreClockUpdate
                0x0000000000000000       0xd4 obj/system_stm32f3xx.o
 .debug_macro   0x0000000000000000      0xa54 obj/system_stm32f3xx.o
 .debug_macro   0x0000000000000000       0x28 obj/system_stm32f3xx.o
 .debug_macro   0x0000000000000000       0x3b obj/system_stm32f3xx.o
 .debug_macro   0x0000000000000000       0x22 obj/system_stm32f3xx.o
 .debug_macro   0x0000000000000000       0x8e obj/system_stm32f3xx.o
 .debug_macro   0x0000000000000000       0x51 obj/system_stm32f3xx.o
 .debug_macro   0x0000000000000000       0xef obj/system_stm32f3xx.o
 .debug_macro   0x0000000000000000       0x6a obj/system_stm32f3xx.o
 .debug_macro   0x0000000000000000      0x1df obj/system_stm32f3xx.o
 .debug_macro   0x0000000000000000       0x2d obj/system_stm32f3xx.o
 .debug_macro   0x0000000000000000       0x26 obj/system_stm32f3xx.o
 .debug_macro   0x0000000000000000      0xd39 obj/system_stm32f3xx.o
 .debug_macro   0x0000000000000000    0x12a33 obj/system_stm32f3xx.o
 .text          0x0000000000000000       0x14 obj/startup_stm32f303xc.o
 .data          0x0000000000000000        0x0 obj/startup_stm32f303xc.o
 .bss           0x0000000000000000        0x0 obj/startup_stm32f303xc.o

Memory Configuration

Name             Origin             Length             Attributes
FLASH            0x0000000008000000 0x0000000000040000 xr
RAM              0x0000000020000000 0x000000000000a000 xrw
CCMRAM           0x0000000010000000 0x0000000000002000 rw
*default*        0x0000000000000000 0xffffffffffffffff

Linker script and memory map

LOAD obj/main.o
LOAD obj/leds.o
LOAD obj/system_stm32f3xx.o
LOAD obj/startup_stm32f303xc.o
                0x000000002000a000                _estack = 0x2000a000
                0x0000000000000800                _Min_Heap_Size = 0x800
                0x0000000000000800                _Min_Stack_Size = 0x800

.isr_vector     0x0000000008000000      0x188
                0x0000000008000000                . = ALIGN (0x4)
 *(.isr_vector)
 .isr_vector    0x0000000008000000      0x188 obj/startup_stm32f303xc.o
                0x0000000008000000                g_pfnVectors
                0x0000000008000188                . = ALIGN (0x4)

.text           0x0000000008000188      0x118
                0x0000000008000188                . = ALIGN (0x4)
 *(.text)
 *(.text*)
 .text.main     0x0000000008000188       0x12 obj/main.o
                0x0000000008000188                main
 *fill*         0x000000000800019a        0x2 
 .text.init_leds
                0x000000000800019c       0x2c obj/leds.o
                0x000000000800019c                init_leds
 .text.ligth_up_leds
                0x00000000080001c8       0x5c obj/leds.o
                0x00000000080001c8                ligth_up_leds
 .text.SystemInit
                0x0000000008000224       0x2c obj/system_stm32f3xx.o
                0x0000000008000224                SystemInit
 .text.Reset_Handler
                0x0000000008000250       0x4c obj/startup_stm32f303xc.o
                0x0000000008000250                Reset_Handler
 .text.Default_Handler
                0x000000000800029c        0x2 obj/startup_stm32f303xc.o
                0x000000000800029c                RTC_Alarm_IRQHandler
                0x000000000800029c                TIM8_TRG_COM_IRQHandler
                0x000000000800029c                TIM8_CC_IRQHandler
                0x000000000800029c                DebugMon_Handler
                0x000000000800029c                TIM1_CC_IRQHandler
                0x000000000800029c                HardFault_Handler
                0x000000000800029c                USB_HP_IRQHandler
                0x000000000800029c                SysTick_Handler
                0x000000000800029c                PVD_IRQHandler
                0x000000000800029c                TAMP_STAMP_IRQHandler
                0x000000000800029c                PendSV_Handler
                0x000000000800029c                NMI_Handler
                0x000000000800029c                EXTI3_IRQHandler
                0x000000000800029c                USB_HP_CAN_TX_IRQHandler
                0x000000000800029c                EXTI0_IRQHandler
                0x000000000800029c                I2C2_EV_IRQHandler
                0x000000000800029c                FPU_IRQHandler
                0x000000000800029c                TIM1_UP_TIM16_IRQHandler
                0x000000000800029c                UsageFault_Handler
                0x000000000800029c                ADC1_2_IRQHandler
                0x000000000800029c                SPI1_IRQHandler
                0x000000000800029c                CAN_SCE_IRQHandler
                0x000000000800029c                TIM6_DAC_IRQHandler
                0x000000000800029c                TIM8_UP_IRQHandler
                0x000000000800029c                DMA2_Channel2_IRQHandler
                0x000000000800029c                DMA1_Channel4_IRQHandler
                0x000000000800029c                USART3_IRQHandler
                0x000000000800029c                DMA1_Channel7_IRQHandler
                0x000000000800029c                UART5_IRQHandler
                0x000000000800029c                ADC3_IRQHandler
                0x000000000800029c                TIM4_IRQHandler
                0x000000000800029c                CAN_RX1_IRQHandler
                0x000000000800029c                DMA2_Channel1_IRQHandler
                0x000000000800029c                I2C1_EV_IRQHandler
                0x000000000800029c                DMA1_Channel6_IRQHandler
                0x000000000800029c                UART4_IRQHandler
                0x000000000800029c                DMA2_Channel4_IRQHandler
                0x000000000800029c                TIM3_IRQHandler
                0x000000000800029c                RCC_IRQHandler
                0x000000000800029c                DMA1_Channel1_IRQHandler
                0x000000000800029c                Default_Handler
                0x000000000800029c                USBWakeUp_RMP_IRQHandler
                0x000000000800029c                EXTI15_10_IRQHandler
                0x000000000800029c                TIM7_IRQHandler
                0x000000000800029c                EXTI9_5_IRQHandler
                0x000000000800029c                RTC_WKUP_IRQHandler
                0x000000000800029c                SPI2_IRQHandler
                0x000000000800029c                USB_LP_CAN_RX0_IRQHandler
                0x000000000800029c                MemManage_Handler
                0x000000000800029c                SVC_Handler
                0x000000000800029c                DMA2_Channel5_IRQHandler
                0x000000000800029c                DMA1_Channel5_IRQHandler
                0x000000000800029c                USB_LP_IRQHandler
                0x000000000800029c                EXTI4_IRQHandler
                0x000000000800029c                TIM1_TRG_COM_TIM17_IRQHandler
                0x000000000800029c                DMA1_Channel3_IRQHandler
                0x000000000800029c                ADC4_IRQHandler
                0x000000000800029c                WWDG_IRQHandler
                0x000000000800029c                TIM2_IRQHandler
                0x000000000800029c                COMP7_IRQHandler
                0x000000000800029c                COMP1_2_3_IRQHandler
                0x000000000800029c                EXTI1_IRQHandler
                0x000000000800029c                USART2_IRQHandler
                0x000000000800029c                COMP4_5_6_IRQHandler
                0x000000000800029c                I2C2_ER_IRQHandler
                0x000000000800029c                DMA1_Channel2_IRQHandler
                0x000000000800029c                TIM8_BRK_IRQHandler
                0x000000000800029c                FLASH_IRQHandler
                0x000000000800029c                BusFault_Handler
                0x000000000800029c                USART1_IRQHandler
                0x000000000800029c                SPI3_IRQHandler
                0x000000000800029c                I2C1_ER_IRQHandler
                0x000000000800029c                USBWakeUp_IRQHandler
                0x000000000800029c                DMA2_Channel3_IRQHandler
                0x000000000800029c                EXTI2_TSC_IRQHandler
                0x000000000800029c                TIM1_BRK_TIM15_IRQHandler
 *(.glue_7)
 .glue_7        0x000000000800029e        0x0 linker stubs
 *(.glue_7t)
 .glue_7t       0x000000000800029e        0x0 linker stubs
 *(.eh_frame)
 *(.init)
 *(.fini)
                0x00000000080002a0                . = ALIGN (0x4)
 *fill*         0x000000000800029e        0x2 
                0x00000000080002a0                _etext = .

.vfp11_veneer   0x00000000080002a0        0x0
 .vfp11_veneer  0x00000000080002a0        0x0 linker stubs

.v4_bx          0x00000000080002a0        0x0
 .v4_bx         0x00000000080002a0        0x0 linker stubs

.iplt           0x00000000080002a0        0x0
 .iplt          0x00000000080002a0        0x0 obj/main.o

.rel.dyn        0x00000000080002a0        0x0
 .rel.iplt      0x00000000080002a0        0x0 obj/main.o

.rodata         0x00000000080002a0        0x0
                0x00000000080002a0                . = ALIGN (0x4)
 *(.rodata)
 *(.rodata*)
                0x00000000080002a0                . = ALIGN (0x4)

.ARM.extab
 *(.ARM.extab* .gnu.linkonce.armextab.*)

.ARM            0x00000000080002a0        0x0
                0x00000000080002a0                __exidx_start = .
 *(.ARM.exidx*)
                0x00000000080002a0                __exidx_end = .

.preinit_array  0x00000000080002a0        0x0
                [!provide]                        PROVIDE (__preinit_array_start = .)
 *(.preinit_array*)
                [!provide]                        PROVIDE (__preinit_array_end = .)

.init_array     0x00000000080002a0        0x0
                [!provide]                        PROVIDE (__init_array_start = .)
 *(SORT_BY_NAME(.init_array.*))
 *(.init_array*)
                [!provide]                        PROVIDE (__init_array_end = .)

.fini_array     0x00000000080002a0        0x0
                [!provide]                        PROVIDE (__fini_array_start = .)
 *(SORT_BY_NAME(.fini_array.*))
 *(.fini_array*)
                [!provide]                        PROVIDE (__fini_array_end = .)
                0x00000000080002a0                _sidata = LOADADDR (.data)

.data           0x0000000020000000        0x0 load address 0x00000000080002a0
                0x0000000020000000                . = ALIGN (0x4)
                0x0000000020000000                _sdata = .
 *(.data)
 *(.data*)
                0x0000000020000000                . = ALIGN (0x4)
                0x0000000020000000                _edata = .
                0x00000000080002a0                _siccmram = LOADADDR (.ccmram)

.igot.plt       0x0000000020000000        0x0 load address 0x00000000080002a0
 .igot.plt      0x0000000020000000        0x0 obj/main.o

.ccmram         0x0000000010000000        0x0 load address 0x00000000080002a0
                0x0000000010000000                . = ALIGN (0x4)
                0x0000000010000000                _sccmram = .
 *(.ccmram)
 *(.ccmram*)
                0x0000000010000000                . = ALIGN (0x4)
                0x0000000010000000                _eccmram = .
                0x0000000010000000                . = ALIGN (0x4)

.bss            0x0000000020000000        0x0
                0x0000000020000000                _sbss = .
                0x0000000020000000                __bss_start__ = _sbss
 *(.bss)
 *(.bss*)
 *(COMMON)
                0x0000000020000000                . = ALIGN (0x4)
                0x0000000020000000                _ebss = .
                0x0000000020000000                __bss_end__ = _ebss

._user_heap_stack
                0x0000000020000000     0x1000
                0x0000000020000000                . = ALIGN (0x8)
                [!provide]                        PROVIDE (end = .)
                [!provide]                        PROVIDE (_end = .)
                0x0000000020000800                . = (. + _Min_Heap_Size)
 *fill*         0x0000000020000000      0x800 
                0x0000000020001000                . = (. + _Min_Stack_Size)
 *fill*         0x0000000020000800      0x800 
                0x0000000020001000                . = ALIGN (0x8)

/DISCARD/

.ARM.attributes
                0x0000000000000000       0x37
 *(.ARM.attributes)
 .ARM.attributes
                0x0000000000000000       0x39 obj/main.o
 .ARM.attributes
                0x0000000000000039       0x39 obj/leds.o
 .ARM.attributes
                0x0000000000000072       0x39 obj/system_stm32f3xx.o
 .ARM.attributes
                0x00000000000000ab       0x21 obj/startup_stm32f303xc.o
OUTPUT(LEDS-CM4 elf32-littlearm)

.debug_info     0x0000000000000000      0x800
 .debug_info    0x0000000000000000      0x128 obj/main.o
 .debug_info    0x0000000000000128      0x2b6 obj/leds.o
 .debug_info    0x00000000000003de      0x400 obj/system_stm32f3xx.o
 .debug_info    0x00000000000007de       0x22 obj/startup_stm32f303xc.o

.debug_abbrev   0x0000000000000000      0x285
 .debug_abbrev  0x0000000000000000       0x96 obj/main.o
 .debug_abbrev  0x0000000000000096       0xcc obj/leds.o
 .debug_abbrev  0x0000000000000162      0x111 obj/system_stm32f3xx.o
 .debug_abbrev  0x0000000000000273       0x12 obj/startup_stm32f303xc.o

.debug_aranges  0x0000000000000000       0xa0
 .debug_aranges
                0x0000000000000000       0x20 obj/main.o
 .debug_aranges
                0x0000000000000020       0x30 obj/leds.o
 .debug_aranges
                0x0000000000000050       0x28 obj/system_stm32f3xx.o
 .debug_aranges
                0x0000000000000078       0x28 obj/startup_stm32f303xc.o

.debug_ranges   0x0000000000000000       0x68
 .debug_ranges  0x0000000000000000       0x10 obj/main.o
 .debug_ranges  0x0000000000000010       0x20 obj/leds.o
 .debug_ranges  0x0000000000000030       0x18 obj/system_stm32f3xx.o
 .debug_ranges  0x0000000000000048       0x20 obj/startup_stm32f303xc.o

.debug_macro    0x0000000000000000    0x14956
 .debug_macro   0x0000000000000000       0xb5 obj/main.o
 .debug_macro   0x00000000000000b5      0xa54 obj/main.o
 .debug_macro   0x0000000000000b09       0x28 obj/main.o
 .debug_macro   0x0000000000000b31       0x3b obj/main.o
 .debug_macro   0x0000000000000b6c       0x22 obj/main.o
 .debug_macro   0x0000000000000b8e       0x8e obj/main.o
 .debug_macro   0x0000000000000c1c       0x51 obj/main.o
 .debug_macro   0x0000000000000c6d       0xef obj/main.o
 .debug_macro   0x0000000000000d5c       0x6a obj/main.o
 .debug_macro   0x0000000000000dc6      0x1df obj/main.o
 .debug_macro   0x0000000000000fa5       0x2d obj/main.o
 .debug_macro   0x0000000000000fd2       0x26 obj/main.o
 .debug_macro   0x0000000000000ff8      0xd39 obj/main.o
 .debug_macro   0x0000000000001d31    0x12a33 obj/main.o
 .debug_macro   0x0000000000014764       0xb5 obj/leds.o
 .debug_macro   0x0000000000014819       0xcc obj/system_stm32f3xx.o
 .debug_macro   0x00000000000148e5       0x2e obj/system_stm32f3xx.o
 .debug_macro   0x0000000000014913       0x43 obj/system_stm32f3xx.o

.debug_line     0x0000000000000000      0x58b
 .debug_line    0x0000000000000000      0x18f obj/main.o
 .debug_line    0x000000000000018f      0x1bd obj/leds.o
 .debug_line    0x000000000000034c      0x1c9 obj/system_stm32f3xx.o
 .debug_line    0x0000000000000515       0x76 obj/startup_stm32f303xc.o

.debug_str      0x0000000000000000    0x70a14
 .debug_str     0x0000000000000000    0x7054a obj/main.o
                                      0x706be (size before relaxing)
 .debug_str     0x000000000007054a       0xb8 obj/leds.o
                                      0x70766 (size before relaxing)
 .debug_str     0x0000000000070602      0x3ea obj/system_stm32f3xx.o
                                      0x70adf (size before relaxing)
 .debug_str     0x00000000000709ec       0x28 obj/startup_stm32f303xc.o
                                         0x53 (size before relaxing)

.comment        0x0000000000000000       0x57
 .comment       0x0000000000000000       0x57 obj/main.o
                                         0x58 (size before relaxing)
 .comment       0x0000000000000057       0x58 obj/leds.o
 .comment       0x0000000000000057       0x58 obj/system_stm32f3xx.o

.debug_frame    0x0000000000000000       0xf4
 .debug_frame   0x0000000000000000       0x2c obj/main.o
 .debug_frame   0x000000000000002c       0x70 obj/leds.o
 .debug_frame   0x000000000000009c       0x58 obj/system_stm32f3xx.o
